target datalayout = "e-m:e-p270:32:32-p271:32:32-p272:64:64-i64:64-i128:128-f80:128-n8:16:32:64-S128"
target triple = "x86_64-pc-linux-gnu"

%struct._typeobject = type { %struct.PyVarObject, ptr, i64, i64, ptr, i64, ptr, ptr, ptr, ptr, ptr, ptr, ptr, ptr, ptr, ptr, ptr, ptr, ptr, i64, ptr, ptr, ptr, ptr, i64, ptr, ptr, ptr, ptr, ptr, ptr, ptr, ptr, ptr, i64, ptr, ptr, ptr, ptr, ptr, ptr, ptr, ptr, ptr, ptr, ptr, i32, ptr, ptr, i8, i16 }
%struct.PyVarObject = type { %struct._object, i64 }
%struct._object = type { %union.anon, ptr }
%union.anon = type { i64 }
%struct.instruction_sequence = type { %struct._object, ptr, i32, i32, i32, ptr, i32, ptr }

@.str.19 = private unnamed_addr constant [24 x i8] c"InstructionSequenceType\00", align 1

; Function Attrs: nounwind uwtable
define internal ptr @inst_seq_create() #0 {
  %1 = alloca ptr, align 8
  %2 = alloca ptr, align 8
  %3 = alloca i32, align 4
  call void @llvm.lifetime.start.p0(i64 8, ptr %2) #6
  %4 = call ptr @_PyObject_GC_New(ptr noundef @_PyInstructionSequence_Type)
  store ptr %4, ptr %2, align 8, !tbaa !4
  %5 = load ptr, ptr %2, align 8, !tbaa !4
  %6 = icmp eq ptr %5, null
  br i1 %6, label %7, label %8

7:                                                ; preds = %0
  store ptr null, ptr %1, align 8
  store i32 1, ptr %3, align 4
  br label %25

8:                                                ; preds = %0
  %9 = load ptr, ptr %2, align 8, !tbaa !4
  %10 = getelementptr inbounds nuw %struct.instruction_sequence, ptr %9, i32 0, i32 1
  store ptr null, ptr %10, align 8, !tbaa !24
  %11 = load ptr, ptr %2, align 8, !tbaa !4
  %12 = getelementptr inbounds nuw %struct.instruction_sequence, ptr %11, i32 0, i32 2
  store i32 0, ptr %12, align 8, !tbaa !42
  %13 = load ptr, ptr %2, align 8, !tbaa !4
  %14 = getelementptr inbounds nuw %struct.instruction_sequence, ptr %13, i32 0, i32 3
  store i32 0, ptr %14, align 4, !tbaa !23
  %15 = load ptr, ptr %2, align 8, !tbaa !4
  %16 = getelementptr inbounds nuw %struct.instruction_sequence, ptr %15, i32 0, i32 4
  store i32 0, ptr %16, align 8, !tbaa !9
  %17 = load ptr, ptr %2, align 8, !tbaa !4
  %18 = getelementptr inbounds nuw %struct.instruction_sequence, ptr %17, i32 0, i32 5
  store ptr null, ptr %18, align 8, !tbaa !20
  %19 = load ptr, ptr %2, align 8, !tbaa !4
  %20 = getelementptr inbounds nuw %struct.instruction_sequence, ptr %19, i32 0, i32 6
  store i32 0, ptr %20, align 8, !tbaa !19
  %21 = load ptr, ptr %2, align 8, !tbaa !4
  %22 = getelementptr inbounds nuw %struct.instruction_sequence, ptr %21, i32 0, i32 7
  store ptr null, ptr %22, align 8, !tbaa !40
  %23 = load ptr, ptr %2, align 8, !tbaa !4
  call void @PyObject_GC_Track(ptr noundef %23)
  %24 = load ptr, ptr %2, align 8, !tbaa !4
  store ptr %24, ptr %1, align 8
  store i32 1, ptr %3, align 4
  br label %25

25:                                               ; preds = %8, %7
  call void @llvm.lifetime.end.p0(i64 8, ptr %2) #6
  %26 = load ptr, ptr %1, align 8
  ret ptr %26
}

; Function Attrs: nounwind uwtable
define internal ptr @inst_seq_new_impl(ptr noundef %0) #0 {
  %2 = alloca ptr, align 8
  store ptr %0, ptr %2, align 8, !tbaa !64
  %3 = call ptr @inst_seq_create()
  ret ptr %3
}

; Function Attrs: nounwind uwtable
define internal ptr @inst_seq_new(ptr noundef %0, ptr noundef %1, ptr noundef %2) #0 {
  %4 = alloca ptr, align 8
  %5 = alloca ptr, align 8
  %6 = alloca ptr, align 8
  %7 = alloca ptr, align 8
  %8 = alloca ptr, align 8
  store ptr %0, ptr %4, align 8, !tbaa !64
  store ptr %1, ptr %5, align 8, !tbaa !41
  store ptr %2, ptr %6, align 8, !tbaa !41
  call void @llvm.lifetime.start.p0(i64 8, ptr %7) #6
  store ptr null, ptr %7, align 8, !tbaa !41
  call void @llvm.lifetime.start.p0(i64 8, ptr %8) #6
  store ptr @_PyInstructionSequence_Type, ptr %8, align 8, !tbaa !64
  %9 = load ptr, ptr %4, align 8, !tbaa !64
  %10 = load ptr, ptr %8, align 8, !tbaa !64
  %11 = icmp eq ptr %9, %10
  br i1 %11, label %20, label %12

12:                                               ; preds = %3
  %13 = load ptr, ptr %4, align 8, !tbaa !64
  %14 = getelementptr inbounds nuw %struct._typeobject, ptr %13, i32 0, i32 35
  %15 = load ptr, ptr %14, align 8, !tbaa !65
  %16 = load ptr, ptr %8, align 8, !tbaa !64
  %17 = getelementptr inbounds nuw %struct._typeobject, ptr %16, i32 0, i32 35
  %18 = load ptr, ptr %17, align 8, !tbaa !65
  %19 = icmp eq ptr %15, %18
  br i1 %19, label %20, label %28

20:                                               ; preds = %12, %3
  %21 = load ptr, ptr %5, align 8, !tbaa !41
  %22 = icmp eq ptr %21, null
  br i1 %22, label %28, label %23

23:                                               ; preds = %20
  %24 = load ptr, ptr %5, align 8, !tbaa !41
  %25 = call i32 @_PyArg_NoPositional(ptr noundef @.str.19, ptr noundef %24)
  %26 = icmp ne i32 %25, 0
  br i1 %26, label %28, label %27

27:                                               ; preds = %23
  br label %51

28:                                               ; preds = %23, %20, %12
  %29 = load ptr, ptr %4, align 8, !tbaa !64
  %30 = load ptr, ptr %8, align 8, !tbaa !64
  %31 = icmp eq ptr %29, %30
  br i1 %31, label %40, label %32

32:                                               ; preds = %28
  %33 = load ptr, ptr %4, align 8, !tbaa !64
  %34 = getelementptr inbounds nuw %struct._typeobject, ptr %33, i32 0, i32 35
  %35 = load ptr, ptr %34, align 8, !tbaa !65
  %36 = load ptr, ptr %8, align 8, !tbaa !64
  %37 = getelementptr inbounds nuw %struct._typeobject, ptr %36, i32 0, i32 35
  %38 = load ptr, ptr %37, align 8, !tbaa !65
  %39 = icmp eq ptr %35, %38
  br i1 %39, label %40, label %48

40:                                               ; preds = %32, %28
  %41 = load ptr, ptr %6, align 8, !tbaa !41
  %42 = icmp eq ptr %41, null
  br i1 %42, label %48, label %43

43:                                               ; preds = %40
  %44 = load ptr, ptr %6, align 8, !tbaa !41
  %45 = call i32 @_PyArg_NoKeywords(ptr noundef @.str.19, ptr noundef %44)
  %46 = icmp ne i32 %45, 0
  br i1 %46, label %48, label %47

47:                                               ; preds = %43
  br label %51

48:                                               ; preds = %43, %40, %32
  %49 = load ptr, ptr %4, align 8, !tbaa !64
  %50 = call ptr @inst_seq_new_impl(ptr noundef %49)
  store ptr %50, ptr %7, align 8, !tbaa !41
  br label %51

51:                                               ; preds = %48, %47, %27
  %52 = load ptr, ptr %7, align 8, !tbaa !41
  call void @llvm.lifetime.end.p0(i64 8, ptr %8) #6
  call void @llvm.lifetime.end.p0(i64 8, ptr %7) #6
  ret ptr %52
}