; Function Attrs: nounwind uwtable
define internal ptr @inst_seq_new(ptr noundef readonly %0, ptr noundef %1, ptr noundef %2) #1 {
  %4 = icmp eq ptr %0, @_PyInstructionSequence_Type
  br i1 %4, label %11, label %5

5:                                                ; preds = %3
  %6 = getelementptr inbounds nuw i8, ptr %0, i64 296
  %7 = load ptr, ptr %6, align 8, !tbaa !57
  %8 = load ptr, ptr getelementptr inbounds nuw (i8, ptr @_PyInstructionSequence_Type, i64 296), align 8, !tbaa !57
  %9 = icmp ne ptr %7, %8
  %10 = icmp eq ptr %1, null
  %or.cond = or i1 %10, %9
  br i1 %or.cond, label %.thread20, label %.thread21

11:                                               ; preds = %3
  %.old1 = icmp eq ptr %1, null
  br i1 %.old1, label %.thread, label %12

12:                                               ; preds = %11
  %13 = tail call i32 @_PyArg_NoPositional(ptr noundef nonnull @.str.19, ptr noundef nonnull %1) #6
  %.not = icmp eq i32 %13, 0
  br i1 %.not, label %inst_seq_new_impl.exit, label %.thread

.thread21:                                        ; preds = %5
  %14 = tail call i32 @_PyArg_NoPositional(ptr noundef nonnull @.str.19, ptr noundef nonnull %1) #6
  %.not22 = icmp eq i32 %14, 0
  br i1 %.not22, label %inst_seq_new_impl.exit, label %.thread21..thread20_crit_edge

.thread21..thread20_crit_edge:                    ; preds = %.thread21
  %.pre = load ptr, ptr %6, align 8, !tbaa !57
  %.pre24 = load ptr, ptr getelementptr inbounds nuw (i8, ptr @_PyInstructionSequence_Type, i64 296), align 8, !tbaa !57
  br label %.thread20

.thread20:                                        ; preds = %.thread21..thread20_crit_edge, %5
  %15 = phi ptr [ %.pre24, %.thread21..thread20_crit_edge ], [ %8, %5 ]
  %16 = phi ptr [ %.pre, %.thread21..thread20_crit_edge ], [ %7, %5 ]
  %17 = icmp ne ptr %16, %15
  %18 = icmp eq ptr %2, null
  %or.cond4 = or i1 %18, %17
  br i1 %or.cond4, label %21, label %19

.thread:                                          ; preds = %11, %12
  %.old3 = icmp eq ptr %2, null
  br i1 %.old3, label %21, label %19

19:                                               ; preds = %.thread20, %.thread
  %20 = tail call i32 @_PyArg_NoKeywords(ptr noundef nonnull @.str.19, ptr noundef nonnull %2) #6
  %.not19 = icmp eq i32 %20, 0
  br i1 %.not19, label %inst_seq_new_impl.exit, label %21

21:                                               ; preds = %19, %.thread, %.thread20
  %22 = tail call ptr @_PyObject_GC_New(ptr noundef nonnull @_PyInstructionSequence_Type) #6
  %23 = icmp eq ptr %22, null
  br i1 %23, label %inst_seq_new_impl.exit, label %24

24:                                               ; preds = %21
  %25 = getelementptr inbounds nuw i8, ptr %22, i64 16
  %26 = getelementptr inbounds nuw i8, ptr %22, i64 40
  store ptr null, ptr %26, align 8, !tbaa !15
  %27 = getelementptr inbounds nuw i8, ptr %22, i64 48
  store i32 0, ptr %27, align 8, !tbaa !14
  %28 = getelementptr inbounds nuw i8, ptr %22, i64 56
  store ptr null, ptr %28, align 8, !tbaa !34
  tail call void @llvm.memset.p0.i64(ptr noundef nonnull align 8 dereferenceable(20) %25, i8 0, i64 20, i1 false)
  tail call void @PyObject_GC_Track(ptr noundef nonnull %22) #6
  br label %inst_seq_new_impl.exit

inst_seq_new_impl.exit:                           ; preds = %24, %21, %.thread21, %19, %12
  %.0 = phi ptr [ null, %19 ], [ null, %12 ], [ null, %.thread21 ], [ null, %21 ], [ %22, %24 ]
  ret ptr %.0
}